target datalayout = "e-m:e-p270:32:32-p271:32:32-p272:64:64-i64:64-i128:128-f80:128-n8:16:32:64-S128"
target triple = "x86_64-pc-linux-gnu"

%"class.llvm::vfs::Status" = type <{ %"class.std::__cxx11::basic_string", %"class.llvm::sys::fs::UniqueID", %"class.std::chrono::time_point", i32, i32, i64, i32, i32, i8, [7 x i8] }>
%"class.std::__cxx11::basic_string" = type { %"struct.std::__cxx11::basic_string<char>::_Alloc_hider", i64, %union.anon }
%"struct.std::__cxx11::basic_string<char>::_Alloc_hider" = type { ptr }
%union.anon = type { i64, [8 x i8] }
%"class.llvm::sys::fs::UniqueID" = type { i64, i64 }
%"class.std::chrono::time_point" = type { %"class.std::chrono::duration" }
%"class.std::chrono::duration" = type { i64 }
%"class.llvm::vfs::detail::InMemoryNode" = type { ptr, i32, %"class.std::__cxx11::basic_string" }
%"class.llvm::vfs::detail::(anonymous namespace)::InMemoryHardLink" = type { %"class.llvm::vfs::detail::InMemoryNode", ptr }

; Function Attrs: mustprogress nounwind uwtable
define internal void @_ZNK4llvm3vfs6detail12_GLOBAL__N_116InMemoryHardLink9getStatusERKNS_5TwineE(ptr dead_on_unwind noalias writable sret(%"class.llvm::vfs::Status") align 8 %0, ptr noundef nonnull align 8 dereferenceable(56) %1, ptr noundef nonnull align 8 dereferenceable(34) %2) unnamed_addr #0 align 2 {
  %4 = alloca ptr, align 8
  %5 = alloca ptr, align 8
  %6 = alloca ptr, align 8
  store ptr %0, ptr %4, align 8
  store ptr %1, ptr %5, align 8
  store ptr %2, ptr %6, align 8
  %7 = load ptr, ptr %5, align 8
  %8 = getelementptr inbounds nuw %"class.llvm::vfs::detail::(anonymous namespace)::InMemoryHardLink", ptr %7, i32 0, i32 1
  %9 = load ptr, ptr %8, align 8
  %10 = load ptr, ptr %6, align 8
  %11 = load ptr, ptr %9, align 8
  %12 = getelementptr inbounds ptr, ptr %11, i64 2
  %13 = load ptr, ptr %12, align 8
  call void %13(ptr dead_on_unwind writable sret(%"class.llvm::vfs::Status") align 8 %0, ptr noundef nonnull align 8 dereferenceable(144) %9, ptr noundef nonnull align 8 dereferenceable(34) %10)
  ret void
}