; Function Attrs: mustprogress nounwind uwtable
define internal void @_ZNK4llvm3vfs6detail12_GLOBAL__N_116InMemoryHardLink9getStatusERKNS_5TwineE(ptr dead_on_unwind noalias writable sret(%"class.llvm::vfs::Status") align 8 %0, ptr nocapture noundef nonnull readonly align 8 dereferenceable(56) %1, ptr noundef nonnull align 8 dereferenceable(34) %2) unnamed_addr #0 align 2 {
  %4 = getelementptr inbounds nuw i8, ptr %1, i64 48
  %5 = load ptr, ptr %4, align 8
  %6 = load ptr, ptr %5, align 8
  %7 = getelementptr inbounds i8, ptr %6, i64 16
  %8 = load ptr, ptr %7, align 8
  tail call void %8(ptr dead_on_unwind writable sret(%"class.llvm::vfs::Status") align 8 %0, ptr noundef nonnull align 8 dereferenceable(144) %5, ptr noundef nonnull align 8 dereferenceable(34) %2) #27
  ret void
}